target datalayout = "e-m:e-p270:32:32-p271:32:32-p272:64:64-i64:64-i128:128-f80:128-n8:16:32:64-S128"
target triple = "x86_64-pc-linux-gnu"

; Function Attrs: nounwind uwtable
define internal void @conv_AV_SAMPLE_FMT_S64_to_AV_SAMPLE_FMT_S32(ptr noundef %0, ptr noundef %1, i32 noundef %2, i32 noundef %3, ptr noundef %4) #0 {
  %6 = alloca ptr, align 8
  %7 = alloca ptr, align 8
  %8 = alloca i32, align 4
  %9 = alloca i32, align 4
  %10 = alloca ptr, align 8
  %11 = alloca ptr, align 8
  store ptr %0, ptr %6, align 8, !tbaa !22
  store ptr %1, ptr %7, align 8, !tbaa !22
  store i32 %2, ptr %8, align 4, !tbaa !4
  store i32 %3, ptr %9, align 4, !tbaa !4
  store ptr %4, ptr %10, align 8, !tbaa !22
  call void @llvm.lifetime.start.p0(i64 8, ptr %11) #8
  %12 = load ptr, ptr %10, align 8, !tbaa !22
  %13 = load i32, ptr %9, align 4, !tbaa !4
  %14 = mul nsw i32 3, %13
  %15 = sext i32 %14 to i64
  %16 = sub i64 0, %15
  %17 = getelementptr inbounds i8, ptr %12, i64 %16
  store ptr %17, ptr %11, align 8, !tbaa !22
  br label %18

18:                                               ; preds = %22, %5
  %19 = load ptr, ptr %6, align 8, !tbaa !22
  %20 = load ptr, ptr %11, align 8, !tbaa !22
  %21 = icmp ult ptr %19, %20
  br i1 %21, label %22, label %75

22:                                               ; preds = %18
  %23 = load ptr, ptr %7, align 8, !tbaa !22
  %24 = load i64, ptr %23, align 8, !tbaa !56
  %25 = ashr i64 %24, 32
  %26 = trunc i64 %25 to i32
  %27 = load ptr, ptr %6, align 8, !tbaa !22
  store i32 %26, ptr %27, align 4, !tbaa !4
  %28 = load i32, ptr %8, align 4, !tbaa !4
  %29 = load ptr, ptr %7, align 8, !tbaa !22
  %30 = sext i32 %28 to i64
  %31 = getelementptr inbounds i8, ptr %29, i64 %30
  store ptr %31, ptr %7, align 8, !tbaa !22
  %32 = load i32, ptr %9, align 4, !tbaa !4
  %33 = load ptr, ptr %6, align 8, !tbaa !22
  %34 = sext i32 %32 to i64
  %35 = getelementptr inbounds i8, ptr %33, i64 %34
  store ptr %35, ptr %6, align 8, !tbaa !22
  %36 = load ptr, ptr %7, align 8, !tbaa !22
  %37 = load i64, ptr %36, align 8, !tbaa !56
  %38 = ashr i64 %37, 32
  %39 = trunc i64 %38 to i32
  %40 = load ptr, ptr %6, align 8, !tbaa !22
  store i32 %39, ptr %40, align 4, !tbaa !4
  %41 = load i32, ptr %8, align 4, !tbaa !4
  %42 = load ptr, ptr %7, align 8, !tbaa !22
  %43 = sext i32 %41 to i64
  %44 = getelementptr inbounds i8, ptr %42, i64 %43
  store ptr %44, ptr %7, align 8, !tbaa !22
  %45 = load i32, ptr %9, align 4, !tbaa !4
  %46 = load ptr, ptr %6, align 8, !tbaa !22
  %47 = sext i32 %45 to i64
  %48 = getelementptr inbounds i8, ptr %46, i64 %47
  store ptr %48, ptr %6, align 8, !tbaa !22
  %49 = load ptr, ptr %7, align 8, !tbaa !22
  %50 = load i64, ptr %49, align 8, !tbaa !56
  %51 = ashr i64 %50, 32
  %52 = trunc i64 %51 to i32
  %53 = load ptr, ptr %6, align 8, !tbaa !22
  store i32 %52, ptr %53, align 4, !tbaa !4
  %54 = load i32, ptr %8, align 4, !tbaa !4
  %55 = load ptr, ptr %7, align 8, !tbaa !22
  %56 = sext i32 %54 to i64
  %57 = getelementptr inbounds i8, ptr %55, i64 %56
  store ptr %57, ptr %7, align 8, !tbaa !22
  %58 = load i32, ptr %9, align 4, !tbaa !4
  %59 = load ptr, ptr %6, align 8, !tbaa !22
  %60 = sext i32 %58 to i64
  %61 = getelementptr inbounds i8, ptr %59, i64 %60
  store ptr %61, ptr %6, align 8, !tbaa !22
  %62 = load ptr, ptr %7, align 8, !tbaa !22
  %63 = load i64, ptr %62, align 8, !tbaa !56
  %64 = ashr i64 %63, 32
  %65 = trunc i64 %64 to i32
  %66 = load ptr, ptr %6, align 8, !tbaa !22
  store i32 %65, ptr %66, align 4, !tbaa !4
  %67 = load i32, ptr %8, align 4, !tbaa !4
  %68 = load ptr, ptr %7, align 8, !tbaa !22
  %69 = sext i32 %67 to i64
  %70 = getelementptr inbounds i8, ptr %68, i64 %69
  store ptr %70, ptr %7, align 8, !tbaa !22
  %71 = load i32, ptr %9, align 4, !tbaa !4
  %72 = load ptr, ptr %6, align 8, !tbaa !22
  %73 = sext i32 %71 to i64
  %74 = getelementptr inbounds i8, ptr %72, i64 %73
  store ptr %74, ptr %6, align 8, !tbaa !22
  br label %18, !llvm.loop !112

75:                                               ; preds = %18
  br label %76

76:                                               ; preds = %80, %75
  %77 = load ptr, ptr %6, align 8, !tbaa !22
  %78 = load ptr, ptr %10, align 8, !tbaa !22
  %79 = icmp ult ptr %77, %78
  br i1 %79, label %80, label %94

80:                                               ; preds = %76
  %81 = load ptr, ptr %7, align 8, !tbaa !22
  %82 = load i64, ptr %81, align 8, !tbaa !56
  %83 = ashr i64 %82, 32
  %84 = trunc i64 %83 to i32
  %85 = load ptr, ptr %6, align 8, !tbaa !22
  store i32 %84, ptr %85, align 4, !tbaa !4
  %86 = load i32, ptr %8, align 4, !tbaa !4
  %87 = load ptr, ptr %7, align 8, !tbaa !22
  %88 = sext i32 %86 to i64
  %89 = getelementptr inbounds i8, ptr %87, i64 %88
  store ptr %89, ptr %7, align 8, !tbaa !22
  %90 = load i32, ptr %9, align 4, !tbaa !4
  %91 = load ptr, ptr %6, align 8, !tbaa !22
  %92 = sext i32 %90 to i64
  %93 = getelementptr inbounds i8, ptr %91, i64 %92
  store ptr %93, ptr %6, align 8, !tbaa !22
  br label %76, !llvm.loop !113

94:                                               ; preds = %76
  call void @llvm.lifetime.end.p0(i64 8, ptr %11) #8
  ret void
}